target datalayout = "e-m:e-p270:32:32-p271:32:32-p272:64:64-i64:64-i128:128-f80:128-n8:16:32:64-S128"
target triple = "x86_64-pc-linux-gnu"

%struct.GetBitContext = type { ptr, ptr, i32, i32, i32 }

@ff_log2_tab = external constant [256 x i8], align 16

; Function Attrs: alwaysinline nounwind willreturn memory(none) uwtable
define internal i32 @av_bswap32(i32 noundef %0) #7 {
  %2 = alloca i32, align 4
  store i32 %0, ptr %2, align 4, !tbaa !31
  %3 = load i32, ptr %2, align 4, !tbaa !31
  %4 = shl i32 %3, 8
  %5 = and i32 %4, 65280
  %6 = load i32, ptr %2, align 4, !tbaa !31
  %7 = lshr i32 %6, 8
  %8 = and i32 %7, 255
  %9 = or i32 %5, %8
  %10 = shl i32 %9, 16
  %11 = load i32, ptr %2, align 4, !tbaa !31
  %12 = lshr i32 %11, 16
  %13 = shl i32 %12, 8
  %14 = and i32 %13, 65280
  %15 = load i32, ptr %2, align 4, !tbaa !31
  %16 = lshr i32 %15, 16
  %17 = lshr i32 %16, 8
  %18 = and i32 %17, 255
  %19 = or i32 %14, %18
  %20 = or i32 %10, %19
  ret i32 %20
}

; Function Attrs: inlinehint nounwind uwtable
define internal i32 @get_bits(ptr noundef %0, i32 noundef %1) #6 {
  %3 = alloca ptr, align 8
  %4 = alloca i32, align 4
  %5 = alloca i32, align 4
  %6 = alloca i32, align 4
  %7 = alloca i32, align 4
  %8 = alloca i32, align 4
  store ptr %0, ptr %3, align 8, !tbaa !52
  store i32 %1, ptr %4, align 4, !tbaa !31
  call void @llvm.lifetime.start.p0(i64 4, ptr %5) #9
  call void @llvm.lifetime.start.p0(i64 4, ptr %6) #9
  %9 = load ptr, ptr %3, align 8, !tbaa !52
  %10 = getelementptr inbounds nuw %struct.GetBitContext, ptr %9, i32 0, i32 2
  %11 = load i32, ptr %10, align 8, !tbaa !130
  store i32 %11, ptr %6, align 4, !tbaa !31
  call void @llvm.lifetime.start.p0(i64 4, ptr %7) #9
  call void @llvm.lifetime.start.p0(i64 4, ptr %8) #9
  %12 = load ptr, ptr %3, align 8, !tbaa !52
  %13 = getelementptr inbounds nuw %struct.GetBitContext, ptr %12, i32 0, i32 4
  %14 = load i32, ptr %13, align 8, !tbaa !131
  store i32 %14, ptr %8, align 4, !tbaa !31
  %15 = load ptr, ptr %3, align 8, !tbaa !52
  %16 = getelementptr inbounds nuw %struct.GetBitContext, ptr %15, i32 0, i32 0
  %17 = load ptr, ptr %16, align 8, !tbaa !132
  %18 = load i32, ptr %6, align 4, !tbaa !31
  %19 = lshr i32 %18, 3
  %20 = zext i32 %19 to i64
  %21 = getelementptr inbounds nuw i8, ptr %17, i64 %20
  %22 = load i32, ptr %21, align 1, !tbaa !54
  %23 = call i32 @av_bswap32(i32 noundef %22) #11
  %24 = load i32, ptr %6, align 4, !tbaa !31
  %25 = and i32 %24, 7
  %26 = shl i32 %23, %25
  %27 = lshr i32 %26, 0
  store i32 %27, ptr %7, align 4, !tbaa !31
  %28 = load i32, ptr %7, align 4, !tbaa !31
  %29 = load i32, ptr %4, align 4, !tbaa !31
  %30 = sub nsw i32 32, %29
  %31 = lshr i32 %28, %30
  store i32 %31, ptr %5, align 4, !tbaa !31
  %32 = load i32, ptr %8, align 4, !tbaa !31
  %33 = load i32, ptr %6, align 4, !tbaa !31
  %34 = load i32, ptr %4, align 4, !tbaa !31
  %35 = add i32 %33, %34
  %36 = icmp ugt i32 %32, %35
  br i1 %36, label %37, label %41

37:                                               ; preds = %2
  %38 = load i32, ptr %6, align 4, !tbaa !31
  %39 = load i32, ptr %4, align 4, !tbaa !31
  %40 = add i32 %38, %39
  br label %43

41:                                               ; preds = %2
  %42 = load i32, ptr %8, align 4, !tbaa !31
  br label %43

43:                                               ; preds = %41, %37
  %44 = phi i32 [ %40, %37 ], [ %42, %41 ]
  store i32 %44, ptr %6, align 4, !tbaa !31
  %45 = load i32, ptr %6, align 4, !tbaa !31
  %46 = load ptr, ptr %3, align 8, !tbaa !52
  %47 = getelementptr inbounds nuw %struct.GetBitContext, ptr %46, i32 0, i32 2
  store i32 %45, ptr %47, align 8, !tbaa !130
  %48 = load i32, ptr %5, align 4, !tbaa !31
  call void @llvm.lifetime.end.p0(i64 4, ptr %8) #9
  call void @llvm.lifetime.end.p0(i64 4, ptr %7) #9
  call void @llvm.lifetime.end.p0(i64 4, ptr %6) #9
  call void @llvm.lifetime.end.p0(i64 4, ptr %5) #9
  ret i32 %48
}

; Function Attrs: alwaysinline nounwind willreturn memory(none) uwtable
define internal i32 @av_clip_c(i32 noundef %0, i32 noundef %1, i32 noundef %2) #7 {
  %4 = alloca i32, align 4
  %5 = alloca i32, align 4
  %6 = alloca i32, align 4
  %7 = alloca i32, align 4
  store i32 %0, ptr %5, align 4, !tbaa !31
  store i32 %1, ptr %6, align 4, !tbaa !31
  store i32 %2, ptr %7, align 4, !tbaa !31
  %8 = load i32, ptr %5, align 4, !tbaa !31
  %9 = load i32, ptr %6, align 4, !tbaa !31
  %10 = icmp slt i32 %8, %9
  br i1 %10, label %11, label %13

11:                                               ; preds = %3
  %12 = load i32, ptr %6, align 4, !tbaa !31
  store i32 %12, ptr %4, align 4
  br label %21

13:                                               ; preds = %3
  %14 = load i32, ptr %5, align 4, !tbaa !31
  %15 = load i32, ptr %7, align 4, !tbaa !31
  %16 = icmp sgt i32 %14, %15
  br i1 %16, label %17, label %19

17:                                               ; preds = %13
  %18 = load i32, ptr %7, align 4, !tbaa !31
  store i32 %18, ptr %4, align 4
  br label %21

19:                                               ; preds = %13
  %20 = load i32, ptr %5, align 4, !tbaa !31
  store i32 %20, ptr %4, align 4
  br label %21

21:                                               ; preds = %19, %17, %11
  %22 = load i32, ptr %4, align 4
  ret i32 %22
}

; Function Attrs: inlinehint nounwind uwtable
define internal i32 @show_bits(ptr noundef %0, i32 noundef %1) #6 {
  %3 = alloca ptr, align 8
  %4 = alloca i32, align 4
  %5 = alloca i32, align 4
  %6 = alloca i32, align 4
  %7 = alloca i32, align 4
  store ptr %0, ptr %3, align 8, !tbaa !52
  store i32 %1, ptr %4, align 4, !tbaa !31
  call void @llvm.lifetime.start.p0(i64 4, ptr %5) #9
  call void @llvm.lifetime.start.p0(i64 4, ptr %6) #9
  %8 = load ptr, ptr %3, align 8, !tbaa !52
  %9 = getelementptr inbounds nuw %struct.GetBitContext, ptr %8, i32 0, i32 2
  %10 = load i32, ptr %9, align 8, !tbaa !130
  store i32 %10, ptr %6, align 4, !tbaa !31
  call void @llvm.lifetime.start.p0(i64 4, ptr %7) #9
  %11 = load ptr, ptr %3, align 8, !tbaa !52
  %12 = getelementptr inbounds nuw %struct.GetBitContext, ptr %11, i32 0, i32 0
  %13 = load ptr, ptr %12, align 8, !tbaa !132
  %14 = load i32, ptr %6, align 4, !tbaa !31
  %15 = lshr i32 %14, 3
  %16 = zext i32 %15 to i64
  %17 = getelementptr inbounds nuw i8, ptr %13, i64 %16
  %18 = load i32, ptr %17, align 1, !tbaa !54
  %19 = call i32 @av_bswap32(i32 noundef %18) #11
  %20 = load i32, ptr %6, align 4, !tbaa !31
  %21 = and i32 %20, 7
  %22 = shl i32 %19, %21
  %23 = lshr i32 %22, 0
  store i32 %23, ptr %7, align 4, !tbaa !31
  %24 = load i32, ptr %7, align 4, !tbaa !31
  %25 = load i32, ptr %4, align 4, !tbaa !31
  %26 = sub nsw i32 32, %25
  %27 = lshr i32 %24, %26
  store i32 %27, ptr %5, align 4, !tbaa !31
  %28 = load i32, ptr %5, align 4, !tbaa !31
  call void @llvm.lifetime.end.p0(i64 4, ptr %7) #9
  call void @llvm.lifetime.end.p0(i64 4, ptr %6) #9
  call void @llvm.lifetime.end.p0(i64 4, ptr %5) #9
  ret i32 %28
}

; Function Attrs: inlinehint nounwind uwtable
define internal i32 @get_bits_long(ptr noundef %0, i32 noundef %1) #6 {
  %3 = alloca i32, align 4
  %4 = alloca ptr, align 8
  %5 = alloca i32, align 4
  %6 = alloca i32, align 4
  store ptr %0, ptr %4, align 8, !tbaa !52
  store i32 %1, ptr %5, align 4, !tbaa !31
  %7 = load i32, ptr %5, align 4, !tbaa !31
  %8 = icmp ne i32 %7, 0
  br i1 %8, label %10, label %9

9:                                                ; preds = %2
  store i32 0, ptr %3, align 4
  br label %29

10:                                               ; preds = %2
  %11 = load i32, ptr %5, align 4, !tbaa !31
  %12 = icmp sle i32 %11, 25
  br i1 %12, label %13, label %17

13:                                               ; preds = %10
  %14 = load ptr, ptr %4, align 8, !tbaa !52
  %15 = load i32, ptr %5, align 4, !tbaa !31
  %16 = call i32 @get_bits(ptr noundef %14, i32 noundef %15)
  store i32 %16, ptr %3, align 4
  br label %29

17:                                               ; preds = %10
  call void @llvm.lifetime.start.p0(i64 4, ptr %6) #9
  %18 = load ptr, ptr %4, align 8, !tbaa !52
  %19 = call i32 @get_bits(ptr noundef %18, i32 noundef 16)
  %20 = load i32, ptr %5, align 4, !tbaa !31
  %21 = sub nsw i32 %20, 16
  %22 = shl i32 %19, %21
  store i32 %22, ptr %6, align 4, !tbaa !31
  %23 = load i32, ptr %6, align 4, !tbaa !31
  %24 = load ptr, ptr %4, align 8, !tbaa !52
  %25 = load i32, ptr %5, align 4, !tbaa !31
  %26 = sub nsw i32 %25, 16
  %27 = call i32 @get_bits(ptr noundef %24, i32 noundef %26)
  %28 = or i32 %23, %27
  store i32 %28, ptr %3, align 4
  call void @llvm.lifetime.end.p0(i64 4, ptr %6) #9
  br label %29

29:                                               ; preds = %17, %13, %9
  %30 = load i32, ptr %3, align 4
  ret i32 %30
}

; Function Attrs: inlinehint nounwind uwtable
define internal void @skip_bits_long(ptr noundef %0, i32 noundef %1) #6 {
  %3 = alloca ptr, align 8
  %4 = alloca i32, align 4
  store ptr %0, ptr %3, align 8, !tbaa !52
  store i32 %1, ptr %4, align 4, !tbaa !31
  %5 = load i32, ptr %4, align 4, !tbaa !31
  %6 = load ptr, ptr %3, align 8, !tbaa !52
  %7 = getelementptr inbounds nuw %struct.GetBitContext, ptr %6, i32 0, i32 2
  %8 = load i32, ptr %7, align 8, !tbaa !130
  %9 = sub nsw i32 0, %8
  %10 = load ptr, ptr %3, align 8, !tbaa !52
  %11 = getelementptr inbounds nuw %struct.GetBitContext, ptr %10, i32 0, i32 4
  %12 = load i32, ptr %11, align 8, !tbaa !131
  %13 = load ptr, ptr %3, align 8, !tbaa !52
  %14 = getelementptr inbounds nuw %struct.GetBitContext, ptr %13, i32 0, i32 2
  %15 = load i32, ptr %14, align 8, !tbaa !130
  %16 = sub nsw i32 %12, %15
  %17 = call i32 @av_clip_c(i32 noundef %5, i32 noundef %9, i32 noundef %16) #11
  %18 = load ptr, ptr %3, align 8, !tbaa !52
  %19 = getelementptr inbounds nuw %struct.GetBitContext, ptr %18, i32 0, i32 2
  %20 = load i32, ptr %19, align 8, !tbaa !130
  %21 = add nsw i32 %20, %17
  store i32 %21, ptr %19, align 8, !tbaa !130
  ret void
}

; Function Attrs: alwaysinline nounwind willreturn memory(none) uwtable
define internal i32 @ff_log2_c(i32 noundef %0) #7 {
  %2 = alloca i32, align 4
  %3 = alloca i32, align 4
  store i32 %0, ptr %2, align 4, !tbaa !31
  call void @llvm.lifetime.start.p0(i64 4, ptr %3) #9
  store i32 0, ptr %3, align 4, !tbaa !31
  %4 = load i32, ptr %2, align 4, !tbaa !31
  %5 = and i32 %4, -65536
  %6 = icmp ne i32 %5, 0
  br i1 %6, label %7, label %12

7:                                                ; preds = %1
  %8 = load i32, ptr %2, align 4, !tbaa !31
  %9 = lshr i32 %8, 16
  store i32 %9, ptr %2, align 4, !tbaa !31
  %10 = load i32, ptr %3, align 4, !tbaa !31
  %11 = add nsw i32 %10, 16
  store i32 %11, ptr %3, align 4, !tbaa !31
  br label %12

12:                                               ; preds = %7, %1
  %13 = load i32, ptr %2, align 4, !tbaa !31
  %14 = and i32 %13, 65280
  %15 = icmp ne i32 %14, 0
  br i1 %15, label %16, label %21

16:                                               ; preds = %12
  %17 = load i32, ptr %2, align 4, !tbaa !31
  %18 = lshr i32 %17, 8
  store i32 %18, ptr %2, align 4, !tbaa !31
  %19 = load i32, ptr %3, align 4, !tbaa !31
  %20 = add nsw i32 %19, 8
  store i32 %20, ptr %3, align 4, !tbaa !31
  br label %21

21:                                               ; preds = %16, %12
  %22 = load i32, ptr %2, align 4, !tbaa !31
  %23 = zext i32 %22 to i64
  %24 = getelementptr inbounds nuw [256 x i8], ptr @ff_log2_tab, i64 0, i64 %23
  %25 = load i8, ptr %24, align 1, !tbaa !54
  %26 = zext i8 %25 to i32
  %27 = load i32, ptr %3, align 4, !tbaa !31
  %28 = add nsw i32 %27, %26
  store i32 %28, ptr %3, align 4, !tbaa !31
  %29 = load i32, ptr %3, align 4, !tbaa !31
  call void @llvm.lifetime.end.p0(i64 4, ptr %3) #9
  ret i32 %29
}

; Function Attrs: inlinehint nounwind uwtable
define internal i32 @show_bits_long(ptr noundef %0, i32 noundef %1) #6 {
  %3 = alloca i32, align 4
  %4 = alloca ptr, align 8
  %5 = alloca i32, align 4
  %6 = alloca %struct.GetBitContext, align 8
  store ptr %0, ptr %4, align 8, !tbaa !52
  store i32 %1, ptr %5, align 4, !tbaa !31
  %7 = load i32, ptr %5, align 4, !tbaa !31
  %8 = icmp sle i32 %7, 25
  br i1 %8, label %9, label %13

9:                                                ; preds = %2
  %10 = load ptr, ptr %4, align 8, !tbaa !52
  %11 = load i32, ptr %5, align 4, !tbaa !31
  %12 = call i32 @show_bits(ptr noundef %10, i32 noundef %11)
  store i32 %12, ptr %3, align 4
  br label %17

13:                                               ; preds = %2
  call void @llvm.lifetime.start.p0(i64 32, ptr %6) #9
  %14 = load ptr, ptr %4, align 8, !tbaa !52
  call void @llvm.memcpy.p0.p0.i64(ptr align 8 %6, ptr align 8 %14, i64 32, i1 false), !tbaa.struct !142
  %15 = load i32, ptr %5, align 4, !tbaa !31
  %16 = call i32 @get_bits_long(ptr noundef %6, i32 noundef %15)
  store i32 %16, ptr %3, align 4
  call void @llvm.lifetime.end.p0(i64 32, ptr %6) #9
  br label %17

17:                                               ; preds = %13, %9
  %18 = load i32, ptr %3, align 4
  ret i32 %18
}

; Function Attrs: inlinehint nounwind uwtable
define internal i32 @get_ue_golomb_long(ptr noundef %0) #6 {
  %2 = alloca ptr, align 8
  %3 = alloca i32, align 4
  %4 = alloca i32, align 4
  store ptr %0, ptr %2, align 8, !tbaa !52
  call void @llvm.lifetime.start.p0(i64 4, ptr %3) #9
  call void @llvm.lifetime.start.p0(i64 4, ptr %4) #9
  %5 = load ptr, ptr %2, align 8, !tbaa !52
  %6 = call i32 @show_bits_long(ptr noundef %5, i32 noundef 32)
  store i32 %6, ptr %3, align 4, !tbaa !31
  %7 = load i32, ptr %3, align 4, !tbaa !31
  %8 = call i32 @ff_log2_c(i32 noundef %7) #11
  %9 = sub nsw i32 31, %8
  store i32 %9, ptr %4, align 4, !tbaa !31
  %10 = load ptr, ptr %2, align 8, !tbaa !52
  %11 = load i32, ptr %4, align 4, !tbaa !31
  call void @skip_bits_long(ptr noundef %10, i32 noundef %11)
  %12 = load ptr, ptr %2, align 8, !tbaa !52
  %13 = load i32, ptr %4, align 4, !tbaa !31
  %14 = add i32 %13, 1
  %15 = call i32 @get_bits_long(ptr noundef %12, i32 noundef %14)
  %16 = sub i32 %15, 1
  call void @llvm.lifetime.end.p0(i64 4, ptr %4) #9
  call void @llvm.lifetime.end.p0(i64 4, ptr %3) #9
  ret i32 %16
}